target datalayout = "e-m:e-p270:32:32-p271:32:32-p272:64:64-i64:64-i128:128-f80:128-n8:16:32:64-S128"
target triple = "x86_64-pc-linux-gnu"

%union.lv_style_value_t = type { ptr }
%struct.lv_area_t = type { i32, i32, i32, i32 }
%struct._lv_obj_t = type { ptr, ptr, ptr, ptr, ptr, %struct.lv_area_t, i32, i16, i16 }

; Function Attrs: inlinehint nounwind uwtable
define internal i32 @lv_obj_get_style_border_side(ptr noundef %0, i32 noundef %1) #3 {
  %3 = alloca ptr, align 8
  %4 = alloca i32, align 4
  %5 = alloca %union.lv_style_value_t, align 8
  store ptr %0, ptr %3, align 8, !tbaa !3
  store i32 %1, ptr %4, align 4, !tbaa !7
  call void @llvm.lifetime.start.p0(i64 8, ptr %5) #5
  %6 = load ptr, ptr %3, align 8, !tbaa !3
  %7 = load i32, ptr %4, align 4, !tbaa !7
  %8 = call ptr @lv_obj_get_style_prop(ptr noundef %6, i32 noundef %7, i8 noundef zeroext 52)
  %9 = getelementptr inbounds nuw %union.lv_style_value_t, ptr %5, i32 0, i32 0
  store ptr %8, ptr %9, align 8
  %10 = load i32, ptr %5, align 8, !tbaa !9
  call void @llvm.lifetime.end.p0(i64 8, ptr %5) #5
  ret i32 %10
}

; Function Attrs: inlinehint nounwind uwtable
define internal i32 @lv_obj_get_style_border_width(ptr noundef %0, i32 noundef %1) #3 {
  %3 = alloca ptr, align 8
  %4 = alloca i32, align 4
  %5 = alloca %union.lv_style_value_t, align 8
  store ptr %0, ptr %3, align 8, !tbaa !3
  store i32 %1, ptr %4, align 4, !tbaa !7
  call void @llvm.lifetime.start.p0(i64 8, ptr %5) #5
  %6 = load ptr, ptr %3, align 8, !tbaa !3
  %7 = load i32, ptr %4, align 4, !tbaa !7
  %8 = call ptr @lv_obj_get_style_prop(ptr noundef %6, i32 noundef %7, i8 noundef zeroext 48)
  %9 = getelementptr inbounds nuw %union.lv_style_value_t, ptr %5, i32 0, i32 0
  store ptr %8, ptr %9, align 8
  %10 = load i32, ptr %5, align 8, !tbaa !9
  call void @llvm.lifetime.end.p0(i64 8, ptr %5) #5
  ret i32 %10
}

; Function Attrs: inlinehint nounwind uwtable
define internal i32 @lv_obj_get_style_pad_left(ptr noundef %0, i32 noundef %1) #3 {
  %3 = alloca ptr, align 8
  %4 = alloca i32, align 4
  %5 = alloca %union.lv_style_value_t, align 8
  store ptr %0, ptr %3, align 8, !tbaa !3
  store i32 %1, ptr %4, align 4, !tbaa !7
  call void @llvm.lifetime.start.p0(i64 8, ptr %5) #5
  %6 = load ptr, ptr %3, align 8, !tbaa !3
  %7 = load i32, ptr %4, align 4, !tbaa !7
  %8 = call ptr @lv_obj_get_style_prop(ptr noundef %6, i32 noundef %7, i8 noundef zeroext 18)
  %9 = getelementptr inbounds nuw %union.lv_style_value_t, ptr %5, i32 0, i32 0
  store ptr %8, ptr %9, align 8
  %10 = load i32, ptr %5, align 8, !tbaa !9
  call void @llvm.lifetime.end.p0(i64 8, ptr %5) #5
  ret i32 %10
}

; Function Attrs: inlinehint nounwind uwtable
define internal i32 @lv_obj_get_style_space_left(ptr noundef %0, i32 noundef %1) #3 {
  %3 = alloca ptr, align 8
  %4 = alloca i32, align 4
  %5 = alloca i32, align 4
  %6 = alloca i32, align 4
  %7 = alloca i32, align 4
  store ptr %0, ptr %3, align 8, !tbaa !3
  store i32 %1, ptr %4, align 4, !tbaa !7
  call void @llvm.lifetime.start.p0(i64 4, ptr %5) #5
  %8 = load ptr, ptr %3, align 8, !tbaa !3
  %9 = load i32, ptr %4, align 4, !tbaa !7
  %10 = call i32 @lv_obj_get_style_pad_left(ptr noundef %8, i32 noundef %9)
  store i32 %10, ptr %5, align 4, !tbaa !7
  call void @llvm.lifetime.start.p0(i64 4, ptr %6) #5
  %11 = load ptr, ptr %3, align 8, !tbaa !3
  %12 = load i32, ptr %4, align 4, !tbaa !7
  %13 = call i32 @lv_obj_get_style_border_width(ptr noundef %11, i32 noundef %12)
  store i32 %13, ptr %6, align 4, !tbaa !7
  call void @llvm.lifetime.start.p0(i64 4, ptr %7) #5
  %14 = load ptr, ptr %3, align 8, !tbaa !3
  %15 = load i32, ptr %4, align 4, !tbaa !7
  %16 = call i32 @lv_obj_get_style_border_side(ptr noundef %14, i32 noundef %15)
  store i32 %16, ptr %7, align 4, !tbaa !7
  %17 = load i32, ptr %7, align 4, !tbaa !7
  %18 = and i32 %17, 4
  %19 = icmp ne i32 %18, 0
  br i1 %19, label %20, label %24

20:                                               ; preds = %2
  %21 = load i32, ptr %5, align 4, !tbaa !7
  %22 = load i32, ptr %6, align 4, !tbaa !7
  %23 = add nsw i32 %21, %22
  br label %26

24:                                               ; preds = %2
  %25 = load i32, ptr %5, align 4, !tbaa !7
  br label %26

26:                                               ; preds = %24, %20
  %27 = phi i32 [ %23, %20 ], [ %25, %24 ]
  call void @llvm.lifetime.end.p0(i64 4, ptr %7) #5
  call void @llvm.lifetime.end.p0(i64 4, ptr %6) #5
  call void @llvm.lifetime.end.p0(i64 4, ptr %5) #5
  ret i32 %27
}

; Function Attrs: nounwind uwtable
define i32 @lv_obj_get_x(ptr noundef %0) #0 {
  %2 = alloca ptr, align 8
  %3 = alloca i32, align 4
  %4 = alloca ptr, align 8
  store ptr %0, ptr %2, align 8, !tbaa !3
  br label %5

5:                                                ; preds = %1
  br label %6

6:                                                ; preds = %5
  call void @llvm.lifetime.start.p0(i64 4, ptr %3) #5
  call void @llvm.lifetime.start.p0(i64 8, ptr %4) #5
  %7 = load ptr, ptr %2, align 8, !tbaa !3
  %8 = call ptr @lv_obj_get_parent(ptr noundef %7)
  store ptr %8, ptr %4, align 8, !tbaa !3
  %9 = load ptr, ptr %4, align 8, !tbaa !3
  %10 = icmp ne ptr %9, null
  br i1 %10, label %11, label %29

11:                                               ; preds = %6
  %12 = load ptr, ptr %2, align 8, !tbaa !3
  %13 = getelementptr inbounds nuw %struct._lv_obj_t, ptr %12, i32 0, i32 5
  %14 = getelementptr inbounds nuw %struct.lv_area_t, ptr %13, i32 0, i32 0
  %15 = load i32, ptr %14, align 8, !tbaa !20
  %16 = load ptr, ptr %4, align 8, !tbaa !3
  %17 = getelementptr inbounds nuw %struct._lv_obj_t, ptr %16, i32 0, i32 5
  %18 = getelementptr inbounds nuw %struct.lv_area_t, ptr %17, i32 0, i32 0
  %19 = load i32, ptr %18, align 8, !tbaa !20
  %20 = sub nsw i32 %15, %19
  store i32 %20, ptr %3, align 4, !tbaa !7
  %21 = load ptr, ptr %4, align 8, !tbaa !3
  %22 = call i32 @lv_obj_get_scroll_x(ptr noundef %21)
  %23 = load i32, ptr %3, align 4, !tbaa !7
  %24 = add nsw i32 %23, %22
  store i32 %24, ptr %3, align 4, !tbaa !7
  %25 = load ptr, ptr %4, align 8, !tbaa !3
  %26 = call i32 @lv_obj_get_style_space_left(ptr noundef %25, i32 noundef 0)
  %27 = load i32, ptr %3, align 4, !tbaa !7
  %28 = sub nsw i32 %27, %26
  store i32 %28, ptr %3, align 4, !tbaa !7
  br label %34

29:                                               ; preds = %6
  %30 = load ptr, ptr %2, align 8, !tbaa !3
  %31 = getelementptr inbounds nuw %struct._lv_obj_t, ptr %30, i32 0, i32 5
  %32 = getelementptr inbounds nuw %struct.lv_area_t, ptr %31, i32 0, i32 0
  %33 = load i32, ptr %32, align 8, !tbaa !20
  store i32 %33, ptr %3, align 4, !tbaa !7
  br label %34

34:                                               ; preds = %29, %11
  %35 = load i32, ptr %3, align 4, !tbaa !7
  call void @llvm.lifetime.end.p0(i64 8, ptr %4) #5
  call void @llvm.lifetime.end.p0(i64 4, ptr %3) #5
  ret i32 %35
}