; Function Attrs: nounwind uwtable
define i32 @lv_obj_get_x(ptr noundef %0) local_unnamed_addr #0 {
  %2 = tail call ptr @lv_obj_get_parent(ptr noundef %0) #8
  %.not = icmp eq ptr %2, null
  %3 = getelementptr inbounds nuw i8, ptr %0, i64 40
  %4 = load i32, ptr %3, align 8, !tbaa !22
  br i1 %.not, label %21, label %5

5:                                                ; preds = %1
  %6 = getelementptr inbounds nuw i8, ptr %2, i64 40
  %7 = load i32, ptr %6, align 8, !tbaa !22
  %8 = tail call i32 @lv_obj_get_scroll_x(ptr noundef nonnull %2) #8
  %9 = tail call ptr @lv_obj_get_style_prop(ptr noundef nonnull %2, i32 noundef 0, i8 noundef zeroext 18) #8
  %10 = ptrtoint ptr %9 to i64
  %.sroa.0.0.extract.trunc.i.i = trunc i64 %10 to i32
  %11 = tail call ptr @lv_obj_get_style_prop(ptr noundef nonnull %2, i32 noundef 0, i8 noundef zeroext 48) #8
  %12 = ptrtoint ptr %11 to i64
  %.sroa.0.0.extract.trunc.i9.i = trunc i64 %12 to i32
  %13 = tail call ptr @lv_obj_get_style_prop(ptr noundef nonnull %2, i32 noundef 0, i8 noundef zeroext 52) #8
  %14 = ptrtoint ptr %13 to i64
  %15 = and i64 %14, 4
  %.not.i = icmp eq i64 %15, 0
  %16 = select i1 %.not.i, i32 0, i32 %.sroa.0.0.extract.trunc.i9.i
  %17 = add i32 %4, %8
  %18 = add i32 %7, %.sroa.0.0.extract.trunc.i.i
  %19 = add i32 %18, %16
  %20 = sub i32 %17, %19
  br label %21

21:                                               ; preds = %1, %5
  %.0 = phi i32 [ %20, %5 ], [ %4, %1 ]
  ret i32 %.0
}